target datalayout = "e-m:e-p270:32:32-p271:32:32-p272:64:64-i64:64-i128:128-f80:128-n8:16:32:64-S128"
target triple = "x86_64-pc-linux-gnu"

; Function Attrs: nounwind uwtable
define internal i32 @wc_SignatureDerEncode(i32 noundef %0, ptr noundef %1, i32 noundef %2, ptr noundef %3) #0 {
  %5 = alloca i32, align 4
  %6 = alloca i32, align 4
  %7 = alloca ptr, align 8
  %8 = alloca i32, align 4
  %9 = alloca ptr, align 8
  %10 = alloca i32, align 4
  %11 = alloca i32, align 4
  %12 = alloca i32, align 4
  store i32 %0, ptr %6, align 4, !tbaa !3
  store ptr %1, ptr %7, align 8, !tbaa !9
  store i32 %2, ptr %8, align 4, !tbaa !3
  store ptr %3, ptr %9, align 8, !tbaa !14
  call void @llvm.lifetime.start.p0(i64 4, ptr %10) #6
  call void @llvm.lifetime.start.p0(i64 4, ptr %11) #6
  %13 = load i32, ptr %6, align 4, !tbaa !3
  %14 = call i32 @wc_HashGetOID(i32 noundef %13)
  store i32 %14, ptr %10, align 4, !tbaa !3
  %15 = load i32, ptr %10, align 4, !tbaa !3
  %16 = icmp slt i32 %15, 0
  br i1 %16, label %17, label %19

17:                                               ; preds = %4
  %18 = load i32, ptr %10, align 4, !tbaa !3
  store i32 %18, ptr %5, align 4
  store i32 1, ptr %12, align 4
  br label %33

19:                                               ; preds = %4
  %20 = load i32, ptr %10, align 4, !tbaa !3
  store i32 %20, ptr %11, align 4, !tbaa !3
  %21 = load ptr, ptr %7, align 8, !tbaa !9
  %22 = load ptr, ptr %7, align 8, !tbaa !9
  %23 = load i32, ptr %8, align 4, !tbaa !3
  %24 = load i32, ptr %11, align 4, !tbaa !3
  %25 = call i32 @wc_EncodeSignature(ptr noundef %21, ptr noundef %22, i32 noundef %23, i32 noundef %24)
  store i32 %25, ptr %10, align 4, !tbaa !3
  %26 = load i32, ptr %10, align 4, !tbaa !3
  %27 = icmp sgt i32 %26, 0
  br i1 %27, label %28, label %31

28:                                               ; preds = %19
  %29 = load i32, ptr %10, align 4, !tbaa !3
  %30 = load ptr, ptr %9, align 8, !tbaa !14
  store i32 %29, ptr %30, align 4, !tbaa !3
  store i32 0, ptr %10, align 4, !tbaa !3
  br label %31

31:                                               ; preds = %28, %19
  %32 = load i32, ptr %10, align 4, !tbaa !3
  store i32 %32, ptr %5, align 4
  store i32 1, ptr %12, align 4
  br label %33

33:                                               ; preds = %31, %17
  call void @llvm.lifetime.end.p0(i64 4, ptr %11) #6
  call void @llvm.lifetime.end.p0(i64 4, ptr %10) #6
  %34 = load i32, ptr %5, align 4
  ret i32 %34
}