; Function Attrs: nounwind uwtable
define internal fastcc range(i32 -2147483648, 1) i32 @wc_SignatureDerEncode(i32 noundef %0, ptr noundef nonnull %1, i32 noundef range(i32 0, -2147483648) %2, ptr noundef nonnull writeonly captures(none) %3) unnamed_addr #0 {
  %5 = tail call i32 @wc_HashGetOID(i32 noundef %0) #7
  %6 = icmp slt i32 %5, 0
  br i1 %6, label %11, label %7

7:                                                ; preds = %4
  %8 = tail call i32 @wc_EncodeSignature(ptr noundef nonnull %1, ptr noundef nonnull %1, i32 noundef %2, i32 noundef %5) #7
  %9 = icmp sgt i32 %8, 0
  br i1 %9, label %10, label %11

10:                                               ; preds = %7
  store i32 %8, ptr %3, align 4, !tbaa !3
  br label %11

11:                                               ; preds = %7, %10, %4
  %.0 = phi i32 [ %5, %4 ], [ 0, %10 ], [ %8, %7 ]
  ret i32 %.0
}